	.file	"push_back.c"
	.file	1 "push_back.c"
	.file	2 "/usr/include/stdatomic.h"
	.file	3 "../include/ll.h"
	.file	4 "./llobj.h"
	.text
.Ltext_begin:
	.data
	.text
	.globl	main
	.align	16, 0x90
	.type	main,@function
main:                                   # @main
	.cfi_startproc
.Lfunc_begin0:
	.loc	1 14 0                  # push_back.c:14:0
# BB#0:
	pushq	%rbp
.Ltmp2:
	.cfi_def_cfa_offset 16
.Ltmp3:
	.cfi_offset %rbp, -16
	movq	%rsp, %rbp
.Ltmp4:
	.cfi_def_cfa_register %rbp
	subq	$32, %rsp
	movl	$0, -4(%rbp)
	.loc	1 16 31 prologue_end    # push_back.c:16:31
.Ltmp5:
	movq	$0, -24(%rbp)
	.loc	1 18 7                  # push_back.c:18:7
.Ltmp6:
	movl	$0, -8(%rbp)
.LBB0_1:                                # =>This Inner Loop Header: Depth=1
	cmpl	$1000, -8(%rbp)         # imm = 0x3E8
	jge	.LBB0_4
# BB#2:                                 #   in Loop: Header=BB0_1 Depth=1
	leaq	data, %rax
	.loc	1 19 3                  # push_back.c:19:3
	movl	-8(%rbp), %ecx
	movslq	-8(%rbp), %rdx
	shlq	$5, %rdx
	addq	%rdx, %rax
	movl	%ecx, (%rax)
# BB#3:                                 #   in Loop: Header=BB0_1 Depth=1
	.loc	1 18 21                 # push_back.c:18:21
	movl	-8(%rbp), %eax
	addl	$1, %eax
	movl	%eax, -8(%rbp)
	jmp	.LBB0_1
.Ltmp7:
.LBB0_4:
	.loc	1 21 7                  # push_back.c:21:7
	movl	$0, -8(%rbp)
.LBB0_5:                                # =>This Inner Loop Header: Depth=1
	cmpl	$1000, -8(%rbp)         # imm = 0x3E8
	jge	.LBB0_8
# BB#6:                                 #   in Loop: Header=BB0_5 Depth=1
	leaq	list, %rdi
	leaq	data, %rax
	.loc	1 22 3                  # push_back.c:22:3
.Ltmp8:
	movslq	-8(%rbp), %rcx
	shlq	$5, %rcx
	addq	%rcx, %rax
	movq	%rax, %rsi
	callq	ll_insert_tail_objlist
	leaq	list, %rdi
	leaq	data, %rax
	.loc	1 23 3                  # push_back.c:23:3
	movslq	-8(%rbp), %rcx
	shlq	$5, %rcx
	addq	%rcx, %rax
	movq	%rax, %rsi
	callq	ll_release_objlist
.Ltmp9:
# BB#7:                                 #   in Loop: Header=BB0_5 Depth=1
	.loc	1 21 21                 # push_back.c:21:21
	movl	-8(%rbp), %eax
	addl	$1, %eax
	movl	%eax, -8(%rbp)
	jmp	.LBB0_5
.Ltmp10:
.LBB0_8:
	leaq	data, %rax
	addq	$8, %rax
	.loc	1 29 2                  # push_back.c:29:2
	cmpq	%rax, list
	jne	.LBB0_10
# BB#9:
	jmp	.LBB0_11
.LBB0_10:
	leaq	.L.str, %rdi
	movl	$29, %esi
	leaq	.L__func__.main, %rdx
	leaq	.L.str1, %rcx
	callq	__assert2
.LBB0_11:
	.loc	1 30 7                  # push_back.c:30:7
.Ltmp11:
	movl	$0, -8(%rbp)
.LBB0_12:                               # =>This Inner Loop Header: Depth=1
	cmpl	$999, -8(%rbp)          # imm = 0x3E7
	jge	.LBB0_18
# BB#13:                                #   in Loop: Header=BB0_12 Depth=1
	leaq	data, %rax
	.loc	1 31 3                  # push_back.c:31:3
	movslq	-8(%rbp), %rcx
	shlq	$5, %rcx
	movq	%rax, %rdx
	addq	%rcx, %rdx
	movq	8(%rdx), %rcx
	movl	-8(%rbp), %esi
	addl	$1, %esi
	movslq	%esi, %rdx
	shlq	$5, %rdx
	addq	%rdx, %rax
	addq	$8, %rax
	cmpq	%rax, %rcx
	jne	.LBB0_15
# BB#14:                                #   in Loop: Header=BB0_12 Depth=1
	jmp	.LBB0_16
.LBB0_15:
	leaq	.L.str, %rdi
	movl	$31, %esi
	leaq	.L__func__.main, %rdx
	leaq	.L.str2, %rcx
	callq	__assert2
.LBB0_16:                               #   in Loop: Header=BB0_12 Depth=1
	jmp	.LBB0_17
.LBB0_17:                               #   in Loop: Header=BB0_12 Depth=1
	.loc	1 30 25                 # push_back.c:30:25
	movl	-8(%rbp), %eax
	addl	$1, %eax
	movl	%eax, -8(%rbp)
	jmp	.LBB0_12
.Ltmp12:
.LBB0_18:
	leaq	list, %rax
	.loc	1 32 2                  # push_back.c:32:2
	cmpq	%rax, data+31976
	jne	.LBB0_20
# BB#19:
	jmp	.LBB0_21
.LBB0_20:
	leaq	.L.str, %rdi
	movl	$32, %esi
	leaq	.L__func__.main, %rdx
	leaq	.L.str3, %rcx
	callq	__assert2
.LBB0_21:
	leaq	data, %rax
	addq	$31968, %rax            # imm = 0x7CE0
	addq	$8, %rax
	.loc	1 37 2                  # push_back.c:37:2
	cmpq	%rax, list+8
	jne	.LBB0_23
# BB#22:
	jmp	.LBB0_24
.LBB0_23:
	leaq	.L.str, %rdi
	movl	$37, %esi
	leaq	.L__func__.main, %rdx
	leaq	.L.str4, %rcx
	callq	__assert2
.LBB0_24:
	.loc	1 38 7                  # push_back.c:38:7
.Ltmp13:
	movl	$0, -8(%rbp)
.LBB0_25:                               # =>This Inner Loop Header: Depth=1
	cmpl	$999, -8(%rbp)          # imm = 0x3E7
	jge	.LBB0_31
# BB#26:                                #   in Loop: Header=BB0_25 Depth=1
	leaq	data, %rax
	.loc	1 39 3                  # push_back.c:39:3
	movl	-8(%rbp), %ecx
	addl	$1, %ecx
	movslq	%ecx, %rdx
	shlq	$5, %rdx
	movq	%rax, %rsi
	addq	%rdx, %rsi
	movq	16(%rsi), %rdx
	movslq	-8(%rbp), %rsi
	shlq	$5, %rsi
	addq	%rsi, %rax
	addq	$8, %rax
	cmpq	%rax, %rdx
	jne	.LBB0_28
# BB#27:                                #   in Loop: Header=BB0_25 Depth=1
	jmp	.LBB0_29
.LBB0_28:
	leaq	.L.str, %rdi
	movl	$39, %esi
	leaq	.L__func__.main, %rdx
	leaq	.L.str5, %rcx
	callq	__assert2
.LBB0_29:                               #   in Loop: Header=BB0_25 Depth=1
	jmp	.LBB0_30
.LBB0_30:                               #   in Loop: Header=BB0_25 Depth=1
	.loc	1 38 25                 # push_back.c:38:25
	movl	-8(%rbp), %eax
	addl	$1, %eax
	movl	%eax, -8(%rbp)
	jmp	.LBB0_25
.Ltmp14:
.LBB0_31:
	leaq	list, %rax
	.loc	1 40 2                  # push_back.c:40:2
	cmpq	%rax, data+16
	jne	.LBB0_33
# BB#32:
	jmp	.LBB0_34
.LBB0_33:
	leaq	.L.str, %rdi
	movl	$40, %esi
	leaq	.L__func__.main, %rdx
	leaq	.L.str6, %rcx
	callq	__assert2
.LBB0_34:
	.loc	1 45 2                  # push_back.c:45:2
	cmpq	$2, list+16
	jne	.LBB0_36
# BB#35:
	jmp	.LBB0_37
.LBB0_36:
	leaq	.L.str, %rdi
	movl	$45, %esi
	leaq	.L__func__.main, %rdx
	leaq	.L.str7, %rcx
	callq	__assert2
.LBB0_37:
	.loc	1 46 7                  # push_back.c:46:7
.Ltmp15:
	movl	$0, -8(%rbp)
.LBB0_38:                               # =>This Inner Loop Header: Depth=1
	cmpl	$999, -8(%rbp)          # imm = 0x3E7
	jge	.LBB0_44
# BB#39:                                #   in Loop: Header=BB0_38 Depth=1
	leaq	data, %rax
	.loc	1 47 3                  # push_back.c:47:3
	movl	-8(%rbp), %ecx
	addl	$1, %ecx
	movslq	%ecx, %rdx
	shlq	$5, %rdx
	addq	%rdx, %rax
	cmpq	$2, 24(%rax)
	jne	.LBB0_41
# BB#40:                                #   in Loop: Header=BB0_38 Depth=1
	jmp	.LBB0_42
.LBB0_41:
	leaq	.L.str, %rdi
	movl	$47, %esi
	leaq	.L__func__.main, %rdx
	leaq	.L.str8, %rcx
	callq	__assert2
.LBB0_42:                               #   in Loop: Header=BB0_38 Depth=1
	jmp	.LBB0_43
.LBB0_43:                               #   in Loop: Header=BB0_38 Depth=1
	.loc	1 46 25                 # push_back.c:46:25
	movl	-8(%rbp), %eax
	addl	$1, %eax
	movl	%eax, -8(%rbp)
	jmp	.LBB0_38
.Ltmp16:
.LBB0_44:
	leaq	list, %rdi
	.loc	1 50 7                  # push_back.c:50:7
.Ltmp17:
	movl	$0, -8(%rbp)
	.loc	1 50 18                 # push_back.c:50:18
	callq	ll_first_objlist
	movq	%rax, -16(%rbp)
.LBB0_45:                               # =>This Inner Loop Header: Depth=1
	cmpl	$1000, -8(%rbp)         # imm = 0x3E8
	jge	.LBB0_54
# BB#46:                                #   in Loop: Header=BB0_45 Depth=1
	.loc	1 53 3                  # push_back.c:53:3
.Ltmp18:
	cmpq	$0, -16(%rbp)
	je	.LBB0_48
# BB#47:                                #   in Loop: Header=BB0_45 Depth=1
	jmp	.LBB0_49
.LBB0_48:
	leaq	.L.str, %rdi
	movl	$53, %esi
	leaq	.L__func__.main, %rdx
	leaq	.L.str9, %rcx
	callq	__assert2
.LBB0_49:                               #   in Loop: Header=BB0_45 Depth=1
	.loc	1 54 3                  # push_back.c:54:3
	movq	-16(%rbp), %rax
	movl	(%rax), %ecx
	cmpl	-8(%rbp), %ecx
	jne	.LBB0_51
# BB#50:                                #   in Loop: Header=BB0_45 Depth=1
	jmp	.LBB0_52
.LBB0_51:
	leaq	.L.str, %rdi
	movl	$54, %esi
	leaq	.L__func__.main, %rdx
	leaq	.L.str10, %rcx
	callq	__assert2
.LBB0_52:                               #   in Loop: Header=BB0_45 Depth=1
	leaq	list, %rdi
	.loc	1 56 12                 # push_back.c:56:12
	movq	-16(%rbp), %rsi
	callq	ll_succ_objlist
	leaq	list, %rdi
	movq	%rax, -24(%rbp)
	.loc	1 58 3                  # push_back.c:58:3
	movq	-16(%rbp), %rsi
	callq	ll_release_objlist
.Ltmp19:
# BB#53:                                #   in Loop: Header=BB0_45 Depth=1
	.loc	1 52 6                  # push_back.c:52:6
	movl	-8(%rbp), %eax
	addl	$1, %eax
	movl	%eax, -8(%rbp)
	movq	-24(%rbp), %rcx
	movq	%rcx, -16(%rbp)
	jmp	.LBB0_45
.Ltmp20:
.LBB0_54:
	movl	$0, %eax
	.loc	1 61 2                  # push_back.c:61:2
	addq	$32, %rsp
	popq	%rbp
	ret
.Ltmp21:
.Ltmp22:
	.size	main, .Ltmp22-main
.Lfunc_end0:
	.cfi_endproc

	.align	16, 0x90
	.type	ll_insert_tail_objlist,@function
ll_insert_tail_objlist:                 # @ll_insert_tail_objlist
	.cfi_startproc
.Lfunc_begin1:
	.loc	4 16 0                  # ./llobj.h:16:0
# BB#0:
	pushq	%rbp
.Ltmp25:
	.cfi_def_cfa_offset 16
.Ltmp26:
	.cfi_offset %rbp, -16
	movq	%rsp, %rbp
.Ltmp27:
	.cfi_def_cfa_register %rbp
	subq	$16, %rsp
	movq	%rdi, -8(%rbp)
	movq	%rsi, -16(%rbp)
	.loc	4 16 1 prologue_end     # ./llobj.h:16:1
.Ltmp28:
	movq	-8(%rbp), %rdi
	movq	-16(%rbp), %rsi
	addq	$8, %rsi
	callq	ll_insert_tail
	addq	$16, %rsp
	popq	%rbp
	ret
.Ltmp29:
.Ltmp30:
	.size	ll_insert_tail_objlist, .Ltmp30-ll_insert_tail_objlist
.Lfunc_end1:
	.cfi_endproc

	.align	16, 0x90
	.type	ll_release_objlist,@function
ll_release_objlist:                     # @ll_release_objlist
	.cfi_startproc
.Lfunc_begin2:
	.loc	4 16 0                  # ./llobj.h:16:0
# BB#0:
	pushq	%rbp
.Ltmp33:
	.cfi_def_cfa_offset 16
.Ltmp34:
	.cfi_offset %rbp, -16
	movq	%rsp, %rbp
.Ltmp35:
	.cfi_def_cfa_register %rbp
	subq	$16, %rsp
	movq	%rdi, -8(%rbp)
	movq	%rsi, -16(%rbp)
	.loc	4 16 1 prologue_end     # ./llobj.h:16:1
.Ltmp36:
	movq	-8(%rbp), %rdi
	movq	-16(%rbp), %rsi
	addq	$8, %rsi
	callq	ll_release
	addq	$16, %rsp
	popq	%rbp
	ret
.Ltmp37:
.Ltmp38:
	.size	ll_release_objlist, .Ltmp38-ll_release_objlist
.Lfunc_end2:
	.cfi_endproc

	.align	16, 0x90
	.type	ll_first_objlist,@function
ll_first_objlist:                       # @ll_first_objlist
	.cfi_startproc
.Lfunc_begin3:
	.loc	4 16 0                  # ./llobj.h:16:0
# BB#0:
	pushq	%rbp
.Ltmp41:
	.cfi_def_cfa_offset 16
.Ltmp42:
	.cfi_offset %rbp, -16
	movq	%rsp, %rbp
.Ltmp43:
	.cfi_def_cfa_register %rbp
	subq	$16, %rsp
	movq	%rdi, -8(%rbp)
	.loc	4 16 1 prologue_end     # ./llobj.h:16:1
.Ltmp44:
	movq	-8(%rbp), %rdi
	movq	-8(%rbp), %rsi
	callq	ll_succ
	movq	%rax, %rdi
	callq	ll_elem_objlist
	addq	$16, %rsp
	popq	%rbp
	ret
.Ltmp45:
.Ltmp46:
	.size	ll_first_objlist, .Ltmp46-ll_first_objlist
.Lfunc_end3:
	.cfi_endproc

	.align	16, 0x90
	.type	ll_succ_objlist,@function
ll_succ_objlist:                        # @ll_succ_objlist
	.cfi_startproc
.Lfunc_begin4:
	.loc	4 16 0                  # ./llobj.h:16:0
# BB#0:
	pushq	%rbp
.Ltmp49:
	.cfi_def_cfa_offset 16
.Ltmp50:
	.cfi_offset %rbp, -16
	movq	%rsp, %rbp
.Ltmp51:
	.cfi_def_cfa_register %rbp
	subq	$16, %rsp
	movq	%rdi, -8(%rbp)
	movq	%rsi, -16(%rbp)
	.loc	4 16 1 prologue_end     # ./llobj.h:16:1
.Ltmp52:
	movq	-8(%rbp), %rdi
	movq	-16(%rbp), %rsi
	addq	$8, %rsi
	callq	ll_succ
	movq	%rax, %rdi
	callq	ll_elem_objlist
	addq	$16, %rsp
	popq	%rbp
	ret
.Ltmp53:
.Ltmp54:
	.size	ll_succ_objlist, .Ltmp54-ll_succ_objlist
.Lfunc_end4:
	.cfi_endproc

	.align	16, 0x90
	.type	ll_elem_objlist,@function
ll_elem_objlist:                        # @ll_elem_objlist
	.cfi_startproc
.Lfunc_begin5:
	.loc	4 16 0                  # ./llobj.h:16:0
# BB#0:
	movq	%rdi, -8(%rsp)
	.loc	4 16 1 prologue_end     # ./llobj.h:16:1
.Ltmp55:
	cmpq	$0, -8(%rsp)
	jne	.LBB5_2
# BB#1:
	movabsq	$0, %rax
	movq	%rax, -16(%rsp)         # 8-byte Spill
	jmp	.LBB5_3
.LBB5_2:
	movq	-8(%rsp), %rax
	subq	$8, %rax
	movq	%rax, -16(%rsp)         # 8-byte Spill
.LBB5_3:
	movq	-16(%rsp), %rax         # 8-byte Reload
	ret
.Ltmp56:
.Ltmp57:
	.size	ll_elem_objlist, .Ltmp57-ll_elem_objlist
.Lfunc_end5:
	.cfi_endproc

	.type	list,@object            # @list
	.data
	.globl	list
	.align	8
list:
	.quad	list
	.quad	list
	.quad	2                       # 0x2
	.zero	8
	.size	list, 32

	.type	data,@object            # @data
	.comm	data,32000,16
	.type	.L.str,@object          # @.str
	.section	.rodata.str1.1,"aMS",@progbits,1
.L.str:
	.asciz	 "push_back.c"
	.size	.L.str, 12

	.type	.L__func__.main,@object # @__func__.main
.L__func__.main:
	.asciz	 "main"
	.size	.L__func__.main, 5

	.type	.L.str1,@object         # @.str1
.L.str1:
	.asciz	 "SUCC(&list.ll_head.q) == &data[0].entry"
	.size	.L.str1, 40

	.type	.L.str2,@object         # @.str2
.L.str2:
	.asciz	 "SUCC(&data[i].entry) == &data[i + 1].entry"
	.size	.L.str2, 43

	.type	.L.str3,@object         # @.str3
.L.str3:
	.asciz	 "SUCC(&data[N - 1].entry) == &list.ll_head.q"
	.size	.L.str3, 44

	.type	.L.str4,@object         # @.str4
.L.str4:
	.asciz	 "PRED(&list.ll_head.q) == &data[N - 1].entry"
	.size	.L.str4, 44

	.type	.L.str5,@object         # @.str5
.L.str5:
	.asciz	 "PRED(&data[i + 1].entry) == &data[i].entry"
	.size	.L.str5, 43

	.type	.L.str6,@object         # @.str6
.L.str6:
	.asciz	 "PRED(&data[0].entry) == &list.ll_head.q"
	.size	.L.str6, 40

	.type	.L.str7,@object         # @.str7
.L.str7:
	.asciz	 "REFCNT(&list.ll_head.q) == 2"
	.size	.L.str7, 29

	.type	.L.str8,@object         # @.str8
.L.str8:
	.asciz	 "REFCNT(&data[i + 1].entry) == 2"
	.size	.L.str8, 32

	.type	.L.str9,@object         # @.str9
.L.str9:
	.asciz	 "o != NULL"
	.size	.L.str9, 10

	.type	.L.str10,@object        # @.str10
.L.str10:
	.asciz	 "o->satelite == i"
	.size	.L.str10, 17

	.cfi_sections .debug_frame
	.text
.Ltext_end:
	.data
.Ldata_end:
	.text
.Lsection_end1:
	.section	".note.GNU-stack","",@progbits
